; ModuleID = 'source-C-CXX/3/147.c'
source_filename = "source-C-CXX/3/147.c"
target datalayout = "e-m:e-p270:32:32-p271:32:32-p272:64:64-i64:64-f80:128-n8:16:32:64-S128"
target triple = "x86_64-pc-linux-gnu"

@.str = private unnamed_addr constant [6 x i8] c"%d %d\00", align 1
@.str.1 = private unnamed_addr constant [3 x i8] c"%d\00", align 1
@.str.2 = private unnamed_addr constant [4 x i8] c"\0A%d\00", align 1

; Function Attrs: nofree nounwind sspstrong uwtable
define dso_local void @main() local_unnamed_addr #0 {
  %1 = alloca [100 x [100 x i32]], align 16
  %2 = alloca i32, align 4
  %3 = alloca i32, align 4
  %4 = bitcast [100 x [100 x i32]]* %1 to i8*
  call void @llvm.lifetime.start.p0i8(i64 40000, i8* nonnull %4) #6
  call void @llvm.memset.p0i8.i64(i8* noundef nonnull align 16 dereferenceable(40000) %4, i8 0, i64 40000, i1 false)
  %5 = bitcast i32* %2 to i8*
  call void @llvm.lifetime.start.p0i8(i64 4, i8* nonnull %5) #6
  %6 = bitcast i32* %3 to i8*
  call void @llvm.lifetime.start.p0i8(i64 4, i8* nonnull %6) #6
  %7 = call i32 (i8*, ...) @__isoc99_scanf(i8* getelementptr inbounds ([6 x i8], [6 x i8]* @.str, i64 0, i64 0), i32* nonnull %2, i32* nonnull %3)
  %8 = load i32, i32* %2, align 4, !tbaa !5
  %9 = icmp sgt i32 %8, 0
  %10 = load i32, i32* %3, align 4, !tbaa !5
  %11 = icmp sgt i32 %10, 0
  %12 = select i1 %9, i1 %11, i1 false
  br i1 %12, label %13, label %34

13:                                               ; preds = %0, %28
  %14 = phi i32 [ %29, %28 ], [ %8, %0 ]
  %15 = phi i32 [ %30, %28 ], [ %10, %0 ]
  %16 = phi i64 [ %31, %28 ], [ 0, %0 ]
  %17 = icmp sgt i32 %15, 0
  br i1 %17, label %18, label %28

18:                                               ; preds = %13, %18
  %19 = phi i64 [ %22, %18 ], [ 0, %13 ]
  %20 = getelementptr inbounds [100 x [100 x i32]], [100 x [100 x i32]]* %1, i64 0, i64 %16, i64 %19
  %21 = call i32 (i8*, ...) @__isoc99_scanf(i8* getelementptr inbounds ([3 x i8], [3 x i8]* @.str.1, i64 0, i64 0), i32* nonnull %20)
  %22 = add nuw nsw i64 %19, 1
  %23 = load i32, i32* %3, align 4, !tbaa !5
  %24 = sext i32 %23 to i64
  %25 = icmp slt i64 %22, %24
  br i1 %25, label %18, label %26, !llvm.loop !9

26:                                               ; preds = %18
  %27 = load i32, i32* %2, align 4, !tbaa !5
  br label %28

28:                                               ; preds = %26, %13
  %29 = phi i32 [ %27, %26 ], [ %14, %13 ]
  %30 = phi i32 [ %23, %26 ], [ %15, %13 ]
  %31 = add nuw nsw i64 %16, 1
  %32 = sext i32 %29 to i64
  %33 = icmp slt i64 %31, %32
  br i1 %33, label %13, label %34, !llvm.loop !11

34:                                               ; preds = %28, %0
  %35 = phi i32 [ %10, %0 ], [ %30, %28 ]
  %36 = phi i32 [ %8, %0 ], [ %29, %28 ]
  %37 = getelementptr inbounds [100 x [100 x i32]], [100 x [100 x i32]]* %1, i64 0, i64 0
  call void @prt([100 x i32]* nonnull %37, i32 %36, i32 %35)
  call void @llvm.lifetime.end.p0i8(i64 4, i8* nonnull %6) #6
  call void @llvm.lifetime.end.p0i8(i64 4, i8* nonnull %5) #6
  call void @llvm.lifetime.end.p0i8(i64 40000, i8* nonnull %4) #6
  ret void
}

; Function Attrs: argmemonly mustprogress nofree nosync nounwind willreturn
declare void @llvm.lifetime.start.p0i8(i64 immarg, i8* nocapture) #1

; Function Attrs: argmemonly mustprogress nofree nounwind willreturn writeonly
declare void @llvm.memset.p0i8.i64(i8* nocapture writeonly, i8, i64, i1 immarg) #2

; Function Attrs: nofree nounwind
declare noundef i32 @__isoc99_scanf(i8* nocapture noundef readonly, ...) local_unnamed_addr #3

; Function Attrs: nofree nounwind sspstrong uwtable
define dso_local void @prt([100 x i32]* nocapture readonly %0, i32 %1, i32 %2) local_unnamed_addr #0 {
  %4 = getelementptr inbounds [100 x i32], [100 x i32]* %0, i64 0, i64 0
  %5 = load i32, i32* %4, align 4, !tbaa !5
  %6 = tail call i32 (i8*, ...) @printf(i8* nonnull dereferenceable(1) getelementptr inbounds ([3 x i8], [3 x i8]* @.str.1, i64 0, i64 0), i32 %5)
  %7 = add i32 %1, -1
  %8 = icmp sgt i32 %2, 1
  br i1 %8, label %9, label %21

9:                                                ; preds = %3
  %10 = zext i32 %2 to i64
  %11 = icmp slt i32 %7, 0
  br label %12

12:                                               ; preds = %9, %36
  %13 = phi i64 [ 1, %9 ], [ %38, %36 ]
  %14 = phi i32 [ 1, %9 ], [ %37, %36 ]
  %15 = icmp sge i32 %14, %7
  %16 = and i1 %15, %11
  br i1 %16, label %36, label %17

17:                                               ; preds = %12
  %18 = call i32 @llvm.smin.i32(i32 %14, i32 %7)
  %19 = add nsw i32 %18, 1
  %20 = zext i32 %19 to i64
  br label %27

21:                                               ; preds = %36, %3
  %22 = sub nsw i32 %2, %1
  %23 = icmp sgt i32 %1, 1
  br i1 %23, label %24, label %62

24:                                               ; preds = %21
  %25 = sext i32 %2 to i64
  %26 = zext i32 %1 to i64
  br label %40

27:                                               ; preds = %17, %27
  %28 = phi i64 [ 0, %17 ], [ %34, %27 ]
  %29 = phi i64 [ %13, %17 ], [ %33, %27 ]
  %30 = getelementptr inbounds [100 x i32], [100 x i32]* %0, i64 %28, i64 %29
  %31 = load i32, i32* %30, align 4, !tbaa !5
  %32 = tail call i32 (i8*, ...) @printf(i8* nonnull dereferenceable(1) getelementptr inbounds ([4 x i8], [4 x i8]* @.str.2, i64 0, i64 0), i32 %31)
  %33 = add nsw i64 %29, -1
  %34 = add nuw nsw i64 %28, 1
  %35 = icmp eq i64 %34, %20
  br i1 %35, label %36, label %27, !llvm.loop !13

36:                                               ; preds = %27, %12
  %37 = add nuw nsw i32 %14, 1
  %38 = add nuw nsw i64 %13, 1
  %39 = icmp eq i64 %38, %10
  br i1 %39, label %21, label %12, !llvm.loop !14

40:                                               ; preds = %24, %58
  %41 = phi i64 [ 1, %24 ], [ %60, %58 ]
  %42 = phi i32 [ 1, %24 ], [ %59, %58 ]
  %43 = add nsw i32 %42, %22
  %44 = icmp sgt i32 %43, 0
  %45 = select i1 %44, i32 %43, i32 0
  %46 = icmp slt i32 %45, %2
  br i1 %46, label %47, label %58

47:                                               ; preds = %40
  %48 = zext i32 %45 to i64
  br label %49

49:                                               ; preds = %47, %49
  %50 = phi i64 [ %41, %47 ], [ %56, %49 ]
  %51 = phi i64 [ %25, %47 ], [ %52, %49 ]
  %52 = add nsw i64 %51, -1
  %53 = getelementptr inbounds [100 x i32], [100 x i32]* %0, i64 %50, i64 %52
  %54 = load i32, i32* %53, align 4, !tbaa !5
  %55 = tail call i32 (i8*, ...) @printf(i8* nonnull dereferenceable(1) getelementptr inbounds ([4 x i8], [4 x i8]* @.str.2, i64 0, i64 0), i32 %54)
  %56 = add nuw nsw i64 %50, 1
  %57 = icmp sgt i64 %52, %48
  br i1 %57, label %49, label %58, !llvm.loop !15

58:                                               ; preds = %49, %40
  %59 = add nuw nsw i32 %42, 1
  %60 = add nuw nsw i64 %41, 1
  %61 = icmp eq i64 %60, %26
  br i1 %61, label %62, label %40, !llvm.loop !16

62:                                               ; preds = %58, %21
  ret void
}

; Function Attrs: argmemonly mustprogress nofree nosync nounwind willreturn
declare void @llvm.lifetime.end.p0i8(i64 immarg, i8* nocapture) #1

; Function Attrs: nofree nounwind
declare noundef i32 @printf(i8* nocapture noundef readonly, ...) local_unnamed_addr #3

; Function Attrs: mustprogress nofree norecurse nosync nounwind readnone sspstrong uwtable willreturn
define dso_local i32 @min(i32 %0, i32 %1) local_unnamed_addr #4 {
  %3 = icmp slt i32 %0, %1
  %4 = select i1 %3, i32 %0, i32 %1
  ret i32 %4
}

; Function Attrs: mustprogress nofree norecurse nosync nounwind readnone sspstrong uwtable willreturn
define dso_local i32 @max(i32 %0, i32 %1) local_unnamed_addr #4 {
  %3 = icmp slt i32 %0, %1
  %4 = select i1 %3, i32 %1, i32 %0
  ret i32 %4
}

; Function Attrs: nofree nosync nounwind readnone speculatable willreturn
declare i32 @llvm.smin.i32(i32, i32) #5


!llvm.module.flags = !{!0, !1, !2, !3}
!llvm.ident = !{!4}

!0 = !{i32 1, !"wchar_size", i32 4}
!1 = !{i32 7, !"PIC Level", i32 2}
!2 = !{i32 7, !"PIE Level", i32 2}
!3 = !{i32 7, !"uwtable", i32 1}
!4 = !{!"clang version 13.0.0"}
!5 = !{!6, !6, i64 0}
!6 = !{!"int", !7, i64 0}
!7 = !{!"omnipotent char", !8, i64 0}
!8 = !{!"Simple C/C++ TBAA"}
!9 = distinct !{!9, !10}
!10 = !{!"llvm.loop.mustprogress"}
!11 = distinct !{!11, !10, !12}
!12 = !{!"llvm.loop.unswitch.partial.disable"}
!13 = distinct !{!13, !10}
!14 = distinct !{!14, !10}
!15 = distinct !{!15, !10}
!16 = distinct !{!16, !10}
